; Function Attrs: mustprogress nounwind uwtable
define internal noundef zeroext i1 @_ZN12_GLOBAL__N_117AArch64AsmPrinter21PrintAsmMemoryOperandEPKN4llvm12MachineInstrEjPKcRNS1_11raw_ostreamE(ptr nocapture nonnull readnone align 8 %0, ptr nocapture noundef readonly %1, i32 noundef %2, ptr noundef readonly %3, ptr noundef nonnull align 8 dereferenceable(48) %4) unnamed_addr #0 align 2 {
  %.not = icmp eq ptr %3, null
  br i1 %.not, label %8, label %6

6:                                                ; preds = %5
  %7 = load i8, ptr %3, align 1
  switch i8 %7, label %_ZN4llvm11raw_ostreamlsEPKc.exit17 [
    i8 0, label %8
    i8 97, label %8
  ]

8:                                                ; preds = %6, %6, %5
  %9 = getelementptr inbounds nuw i8, ptr %1, i64 32
  %10 = load ptr, ptr %9, align 8
  %11 = zext i32 %2 to i64
  %12 = getelementptr inbounds nuw i8, ptr %4, i64 24
  %13 = load ptr, ptr %12, align 8
  %14 = getelementptr inbounds nuw i8, ptr %4, i64 32
  %15 = load ptr, ptr %14, align 8
  %16 = icmp eq ptr %13, %15
  br i1 %16, label %17, label %19

17:                                               ; preds = %8
  %18 = tail call noundef nonnull align 8 dereferenceable(48) ptr @_ZN4llvm11raw_ostream5writeEPKcm(ptr noundef nonnull align 8 dereferenceable(48) %4, ptr noundef nonnull @.str.62, i64 noundef 1) #21
  br label %_ZN4llvm11raw_ostreamlsEPKc.exit

19:                                               ; preds = %8
  store i8 91, ptr %15, align 1
  %20 = load ptr, ptr %14, align 8
  %21 = getelementptr inbounds i8, ptr %20, i64 1
  store ptr %21, ptr %14, align 8
  br label %_ZN4llvm11raw_ostreamlsEPKc.exit

_ZN4llvm11raw_ostreamlsEPKc.exit:                 ; preds = %17, %19
  %.0.i.i = phi ptr [ %18, %17 ], [ %4, %19 ]
  %22 = getelementptr inbounds %"class.llvm::MachineOperand", ptr %10, i64 %11, i32 1
  %23 = load i32, ptr %22, align 4
  %24 = tail call noundef ptr @_ZN4llvm18AArch64InstPrinter15getRegisterNameENS_10MCRegisterEj(i32 %23, i32 noundef 0) #21
  %.not.i.i = icmp eq ptr %24, null
  br i1 %.not.i.i, label %_ZN4llvm11raw_ostreamlsEPKc.exit13, label %_ZN4llvm9StringRefC2EPKc.exit.i

_ZN4llvm9StringRefC2EPKc.exit.i:                  ; preds = %_ZN4llvm11raw_ostreamlsEPKc.exit
  %25 = tail call noundef i64 @strlen(ptr noundef nonnull dereferenceable(1) %24) #21
  %26 = getelementptr inbounds nuw i8, ptr %.0.i.i, i64 24
  %27 = load ptr, ptr %26, align 8
  %28 = getelementptr inbounds nuw i8, ptr %.0.i.i, i64 32
  %29 = load ptr, ptr %28, align 8
  %30 = ptrtoint ptr %27 to i64
  %31 = ptrtoint ptr %29 to i64
  %32 = sub i64 %30, %31
  %33 = icmp ugt i64 %25, %32
  br i1 %33, label %34, label %36

34:                                               ; preds = %_ZN4llvm9StringRefC2EPKc.exit.i
  %35 = tail call noundef nonnull align 8 dereferenceable(48) ptr @_ZN4llvm11raw_ostream5writeEPKcm(ptr noundef nonnull align 8 dereferenceable(48) %.0.i.i, ptr noundef nonnull %24, i64 noundef %25) #21
  br label %_ZN4llvm11raw_ostreamlsEPKc.exit13

36:                                               ; preds = %_ZN4llvm9StringRefC2EPKc.exit.i
  %.not.i2.i11 = icmp eq i64 %25, 0
  br i1 %.not.i2.i11, label %_ZN4llvm11raw_ostreamlsEPKc.exit13, label %37

37:                                               ; preds = %36
  tail call void @llvm.memcpy.p0.p0.i64(ptr align 1 %29, ptr nonnull align 1 %24, i64 %25, i1 false)
  %38 = load ptr, ptr %28, align 8
  %39 = getelementptr inbounds i8, ptr %38, i64 %25
  store ptr %39, ptr %28, align 8
  br label %_ZN4llvm11raw_ostreamlsEPKc.exit13

_ZN4llvm11raw_ostreamlsEPKc.exit13:               ; preds = %_ZN4llvm11raw_ostreamlsEPKc.exit, %34, %36, %37
  %.0.i.i12 = phi ptr [ %35, %34 ], [ %.0.i.i, %37 ], [ %.0.i.i, %36 ], [ %.0.i.i, %_ZN4llvm11raw_ostreamlsEPKc.exit ]
  %40 = getelementptr inbounds nuw i8, ptr %.0.i.i12, i64 24
  %41 = load ptr, ptr %40, align 8
  %42 = getelementptr inbounds nuw i8, ptr %.0.i.i12, i64 32
  %43 = load ptr, ptr %42, align 8
  %44 = icmp eq ptr %41, %43
  br i1 %44, label %45, label %47

45:                                               ; preds = %_ZN4llvm11raw_ostreamlsEPKc.exit13
  %46 = tail call noundef nonnull align 8 dereferenceable(48) ptr @_ZN4llvm11raw_ostream5writeEPKcm(ptr noundef nonnull align 8 dereferenceable(48) %.0.i.i12, ptr noundef nonnull @.str.59, i64 noundef 1) #21
  br label %_ZN4llvm11raw_ostreamlsEPKc.exit17

47:                                               ; preds = %_ZN4llvm11raw_ostreamlsEPKc.exit13
  store i8 93, ptr %43, align 1
  %48 = load ptr, ptr %42, align 8
  %49 = getelementptr inbounds i8, ptr %48, i64 1
  store ptr %49, ptr %42, align 8
  br label %_ZN4llvm11raw_ostreamlsEPKc.exit17

_ZN4llvm11raw_ostreamlsEPKc.exit17:               ; preds = %47, %45, %6
  %.0 = phi i1 [ true, %6 ], [ false, %45 ], [ false, %47 ]
  ret i1 %.0
}